target datalayout = "e-m:e-p270:32:32-p271:32:32-p272:64:64-i64:64-i128:128-f80:128-n8:16:32:64-S128"
target triple = "x86_64-pc-linux-gnu"

%struct.AVClass = type { ptr, ptr, ptr, i32, i32, i32, i32, ptr, ptr, ptr, ptr, i32 }
%struct.AVOptionRanges = type { ptr, i32, i32 }

; Function Attrs: nounwind uwtable
define i32 @av_opt_query_ranges(ptr noundef %0, ptr noundef %1, ptr noundef %2, i32 noundef %3) #0 {
  %5 = alloca ptr, align 8
  %6 = alloca ptr, align 8
  %7 = alloca ptr, align 8
  %8 = alloca i32, align 4
  %9 = alloca i32, align 4
  %10 = alloca ptr, align 8
  %11 = alloca ptr, align 8
  store ptr %0, ptr %5, align 8, !tbaa !119
  store ptr %1, ptr %6, align 8, !tbaa !4
  store ptr %2, ptr %7, align 8, !tbaa !19
  store i32 %3, ptr %8, align 4, !tbaa !20
  call void @llvm.lifetime.start.p0(i64 4, ptr %9) #11
  call void @llvm.lifetime.start.p0(i64 8, ptr %10) #11
  %12 = load ptr, ptr %6, align 8, !tbaa !4
  %13 = load ptr, ptr %12, align 8, !tbaa !10
  store ptr %13, ptr %10, align 8, !tbaa !10
  call void @llvm.lifetime.start.p0(i64 8, ptr %11) #11
  %14 = load ptr, ptr %10, align 8, !tbaa !10
  %15 = getelementptr inbounds nuw %struct.AVClass, ptr %14, i32 0, i32 8
  %16 = load ptr, ptr %15, align 8, !tbaa !121
  store ptr %16, ptr %11, align 8, !tbaa !4
  %17 = load ptr, ptr %11, align 8, !tbaa !4
  %18 = icmp ne ptr %17, null
  br i1 %18, label %20, label %19

19:                                               ; preds = %4
  store ptr @av_opt_query_ranges_default, ptr %11, align 8, !tbaa !4
  br label %20

20:                                               ; preds = %19, %4
  %21 = load ptr, ptr %11, align 8, !tbaa !4
  %22 = load ptr, ptr %5, align 8, !tbaa !119
  %23 = load ptr, ptr %6, align 8, !tbaa !4
  %24 = load ptr, ptr %7, align 8, !tbaa !19
  %25 = load i32, ptr %8, align 4, !tbaa !20
  %26 = call i32 %21(ptr noundef %22, ptr noundef %23, ptr noundef %24, i32 noundef %25)
  store i32 %26, ptr %9, align 4, !tbaa !20
  %27 = load i32, ptr %9, align 4, !tbaa !20
  %28 = icmp sge i32 %27, 0
  br i1 %28, label %29, label %39

29:                                               ; preds = %20
  %30 = load i32, ptr %8, align 4, !tbaa !20
  %31 = and i32 %30, 4096
  %32 = icmp ne i32 %31, 0
  br i1 %32, label %34, label %33

33:                                               ; preds = %29
  store i32 1, ptr %9, align 4, !tbaa !20
  br label %34

34:                                               ; preds = %33, %29
  %35 = load i32, ptr %9, align 4, !tbaa !20
  %36 = load ptr, ptr %5, align 8, !tbaa !119
  %37 = load ptr, ptr %36, align 8, !tbaa !82
  %38 = getelementptr inbounds nuw %struct.AVOptionRanges, ptr %37, i32 0, i32 2
  store i32 %35, ptr %38, align 4, !tbaa !122
  br label %39

39:                                               ; preds = %34, %20
  %40 = load i32, ptr %9, align 4, !tbaa !20
  call void @llvm.lifetime.end.p0(i64 8, ptr %11) #11
  call void @llvm.lifetime.end.p0(i64 8, ptr %10) #11
  call void @llvm.lifetime.end.p0(i64 4, ptr %9) #11
  ret i32 %40
}