; Function Attrs: nounwind uwtable
define i32 @av_opt_query_ranges(ptr noundef %0, ptr noundef %1, ptr noundef %2, i32 noundef %3) local_unnamed_addr #2 {
  %5 = load ptr, ptr %1, align 8, !tbaa !4
  %6 = getelementptr inbounds nuw i8, ptr %5, i64 48
  %7 = load ptr, ptr %6, align 8, !tbaa !70
  %.not = icmp eq ptr %7, null
  %spec.store.select = select i1 %.not, ptr @av_opt_query_ranges_default, ptr %7
  %8 = tail call i32 %spec.store.select(ptr noundef %0, ptr noundef nonnull %1, ptr noundef %2, i32 noundef %3) #18
  %9 = icmp sgt i32 %8, -1
  br i1 %9, label %10, label %14

10:                                               ; preds = %4
  %11 = and i32 %3, 4096
  %.not14 = icmp eq i32 %11, 0
  %spec.select = select i1 %.not14, i32 1, i32 %8
  %12 = load ptr, ptr %0, align 8, !tbaa !71
  %13 = getelementptr inbounds nuw i8, ptr %12, i64 12
  store i32 %spec.select, ptr %13, align 4, !tbaa !73
  br label %14

14:                                               ; preds = %10, %4
  %.0 = phi i32 [ %spec.select, %10 ], [ %8, %4 ]
  ret i32 %.0
}